(dp0
S'cmsketch'
p1
(dp2
S'recall'
p3
F0.9992815238095237
sS'precision'
p4
F0.9991714089441048
ssS'cmmcusketch'
p5
(dp6
g3
F0.718445603174603
sg4
F0.9352524076033185
ssS'cusketch'
p7
(dp8
g3
F1.0
sg4
F1.0
ssS'Lcusketch'
p9
(dp10
g3
F0.9978458095238093
sg4
F0.9916836330002726
ssS'cmmsketch'
p11
(dp12
g3
F0.7143469206349207
sg4
F0.9318034675571705
ssS'csmsketch'
p13
(dp14
g3
F0.7174946507936508
sg4
F0.524469633909356
ssS'csketch'
p15
(dp16
g3
F0.9964402857142856
sg4
F0.9794272839999326
ssS'sbfsketch'
p17
(dp18
g3
F0.9988958412698413
sg4
F0.9987965654034574
ssS'asketch'
p19
(dp20
g3
F0.9833906666666665
sg4
F0.6708137197884524
ss.