(dp0
S'cmsketch'
p1
(dp2
I128
(dp3
S'aae'
p4
F1.110236220472441
sS'recall'
p5
F0.9921875
sS'are'
p6
F3.900205939546901e-05
sS'p'
p7
F0.9999941413573303
ssI256
(dp8
g4
F0.86328125
sg5
F1.0
sg6
F4.261624161226653e-05
sg7
F0.9999949931334401
ssI4096
(dp9
g4
F0.8261933904528764
sg5
F0.997314453125
sg6
F0.0006607678617032236
sg7
F0.9999877896898159
ssI1024
(dp10
g4
F0.6999022482893451
sg5
F0.9990234375
sg6
F9.709851699187693e-05
sg7
F0.9999979039754434
ssI32
(dp11
g4
F1.1875
sg5
F1.0
sg6
F2.531774279709964e-05
sg7
F1.0
ssI8
(dp12
g4
F1.375
sg5
F1.0
sg6
F1.6336720803321728e-05
sg7
F1.0
ssI64
(dp13
g4
F1.15625
sg5
F1.0
sg6
F3.056203270414014e-05
sg7
F1.0
ssI16
(dp14
g4
F1.125
sg5
F1.0
sg6
F1.7862270228950642e-05
sg7
F1.0
ssI512
(dp15
g4
F0.7109375
sg5
F1.0
sg6
F5.576287925304194e-05
sg7
F0.9999989271123013
ssI2048
(dp16
g4
F0.7105134474327628
sg5
F0.99853515625
sg6
F0.0002222337921045525
sg7
F0.9999962690472399
sssS'cmmcusketch'
p17
(dp18
I128
(dp19
g4
F14.7890625
sg5
F1.0
sg6
F0.0005090747449886574
sg7
F0.9999484984435085
ssI256
(dp20
g4
F13.33203125
sg5
F1.0
sg6
F0.0006562990226221853
sg7
F0.9999399176012818
ssI4096
(dp21
g4
F3.520275251904645
sg5
F0.993408203125
sg6
F0.0027651635028836017
sg7
F0.9999000676218014
ssI1024
(dp22
g4
F6.327450980392157
sg5
F0.99609375
sg6
F0.0008622275342040198
sg7
F0.9999668735688112
ssI32
(dp23
g4
F20.741935483870968
sg5
F0.96875
sg6
F0.00043657574990445426
sg7
F0.9993951612903226
ssI8
(dp24
g4
F24.875
sg5
F1.0
sg6
F0.0002962280280217297
sg7
F1.0
ssI64
(dp25
g4
F18.703125
sg5
F1.0
sg6
F0.0004826529023471925
sg7
F0.9999084249084249
ssI16
(dp26
g4
F16.125
sg5
F1.0
sg6
F0.0002524736777430844
sg7
F1.0
ssI512
(dp27
g4
F10.217647058823529
sg5
F0.99609375
sg6
F0.0007917977821766389
sg7
F0.999970101882021
ssI2048
(dp28
g4
F4.1847133757961785
sg5
F0.99658203125
sg6
F0.0012683358296240767
sg7
F0.9999654854477281
sssS'cusketch'
p29
(dp30
I128
(dp31
g4
F0.0
sg5
F1.0
sg6
F0.0
sg7
F0.9999942776048343
ssI256
(dp32
g4
F0.0
sg5
F1.0
sg6
F0.0
sg7
F0.9999992847333485
ssI4096
(dp33
g4
F0.011233211233211233
sg5
F0.999755859375
sg6
F7.218733965992923e-06
sg7
F0.999999725029375
ssI1024
(dp34
g4
F0.0
sg5
F1.0
sg6
F0.0
sg7
F0.9999997541306058
ssI32
(dp35
g4
F0.0
sg5
F1.0
sg6
F0.0
sg7
F1.0
ssI8
(dp36
g4
F0.0
sg5
F1.0
sg6
F0.0
sg7
F1.0
ssI64
(dp37
g4
F0.0
sg5
F1.0
sg6
F0.0
sg7
F1.0
ssI16
(dp38
g4
F0.0
sg5
F1.0
sg6
F0.0
sg7
F1.0
ssI512
(dp39
g4
F0.0
sg5
F1.0
sg6
F0.0
sg7
F0.9999997317780753
ssI2048
(dp40
g4
F0.00146484375
sg5
F1.0
sg6
F4.260942706058204e-07
sg7
F0.9999998309649124
sssS'Lcusketch'
p41
(dp42
I128
(dp43
g4
F0.0
sg5
F1.0
sg6
F0.0
sg7
F0.9999942776048343
ssI256
(dp44
g4
F0.0
sg5
F1.0
sg6
F0.0
sg7
F0.9999992847333485
ssI4096
(dp45
g4
F0.011233211233211233
sg5
F0.999755859375
sg6
F5.512536814283065e-06
sg7
F0.9999997785031667
ssI1024
(dp46
g4
F0.0
sg5
F1.0
sg6
F0.0
sg7
F0.9999997429547243
ssI32
(dp47
g4
F0.0
sg5
F1.0
sg6
F0.0
sg7
F1.0
ssI8
(dp48
g4
F0.0
sg5
F1.0
sg6
F0.0
sg7
F1.0
ssI64
(dp49
g4
F0.0
sg5
F1.0
sg6
F0.0
sg7
F1.0
ssI16
(dp50
g4
F0.0
sg5
F1.0
sg6
F0.0
sg7
F1.0
ssI512
(dp51
g4
F0.0
sg5
F1.0
sg6
F0.0
sg7
F0.9999997317780753
ssI2048
(dp52
g4
F0.00390625
sg5
F1.0
sg6
F1.331774003473513e-06
sg7
F0.9999998547136437
sssS'cmmsketch'
p53
(dp54
I128
(dp55
g4
F13.2265625
sg5
F1.0
sg6
F0.0004551781268768858
sg7
F0.9999656656290057
ssI256
(dp56
g4
F12.5546875
sg5
F1.0
sg6
F0.0006174703367559739
sg7
F0.9999120222018768
ssI4096
(dp57
g4
F2.9519940915805023
sg5
F0.99169921875
sg6
F0.0023057389640343626
sg7
F0.9998809074205961
ssI1024
(dp58
g4
F5.6062683643486775
sg5
F0.9970703125
sg6
F0.0007633664805692693
sg7
F0.9999715708805089
ssI32
(dp59
g4
F20.741935483870968
sg5
F0.96875
sg6
F0.0004366829441502657
sg7
F0.9993951612903226
ssI8
(dp60
g4
F24.625
sg5
F1.0
sg6
F0.00029327079262751326
sg7
F1.0
ssI64
(dp61
g4
F17.0625
sg5
F1.0
sg6
F0.0004400651626020471
sg7
F0.9999084249084249
ssI16
(dp62
g4
F15.375
sg5
F1.0
sg6
F0.00024083916563537742
sg7
F1.0
ssI512
(dp63
g4
F9.733333333333333
sg5
F0.99609375
sg6
F0.0007557029599888147
sg7
F0.9999553563654382
ssI2048
(dp64
g4
F3.4862745098039216
sg5
F0.99609375
sg6
F0.001054313086943186
sg7
F0.9999674276783572
sssS'csmsketch'
p65
(dp66
I128
(dp67
g4
F16.78125
sg5
F1.0
sg6
F0.0005795362704719797
sg7
F0.9999427760483428
ssI256
(dp68
g4
F13.424603174603174
sg5
F0.984375
sg6
F0.000651869169563098
sg7
F0.9998631485726583
ssI4096
(dp69
g4
F3.1927353595255745
sg5
F0.988037109375
sg6
F0.00245534316537104
sg7
F0.999787643297808
ssI1024
(dp70
g4
F5.899019607843138
sg5
F0.99609375
sg6
F0.000797581783145346
sg7
F0.9999502736026105
ssI32
(dp71
g4
F20.096774193548388
sg5
F0.96875
sg6
F0.0004228679839090895
sg7
F0.9993951612903226
ssI8
(dp72
g4
F24.0
sg5
F1.0
sg6
F0.0002858468786554873
sg7
F1.0
ssI64
(dp73
g4
F15.301587301587302
sg5
F0.984375
sg6
F0.00039277486106618686
sg7
F0.9999039938556068
ssI16
(dp74
g4
F27.6875
sg5
F1.0
sg6
F0.00043632646271936034
sg7
F1.0
ssI512
(dp75
g4
F11.185770750988143
sg5
F0.98828125
sg6
F0.000857410761897473
sg7
F0.9998874134905129
ssI2048
(dp76
g4
F3.6337266470009832
sg5
F0.9931640625
sg6
F0.001073970528639104
sg7
F0.9999547913002461
sssS'csketch'
p77
(dp78
I128
(dp79
g4
F2.3125
sg5
F1.0
sg6
F7.760849186962868e-05
sg7
F0.99995994323384
ssI256
(dp80
g4
F2.09375
sg5
F1.0
sg6
F0.00010545916725020626
sg7
F0.999961375600824
ssI4096
(dp81
g4
F0.8826843007592456
sg5
F0.996826171875
sg6
F0.0006664575107933624
sg7
F0.9999535997904523
ssI1024
(dp82
g4
F0.7556207233626588
sg5
F0.9990234375
sg6
F0.00010348754684808939
sg7
F0.999997556506132
ssI32
(dp83
g4
F0.78125
sg5
F1.0
sg6
F1.62461297131837e-05
sg7
F1.0
ssI8
(dp84
g4
F0.375
sg5
F1.0
sg6
F4.466678577809541e-06
sg7
F1.0
ssI64
(dp85
g4
F0.90625
sg5
F1.0
sg6
F2.3950345156469194e-05
sg7
F1.0
ssI16
(dp86
g4
F0.8125
sg5
F1.0
sg6
F1.2588986761028382e-05
sg7
F1.0
ssI512
(dp87
g4
F0.69140625
sg5
F1.0
sg6
F5.3697079985615256e-05
sg7
F0.999997586002678
ssI2048
(dp88
g4
F0.7584352078239609
sg5
F0.99853515625
sg6
F0.00023182182097414213
sg7
F0.9999911763458325
sssS'sbfsketch'
p89
(dp90
I128
(dp91
g4
F0.9453125
sg5
F1.0
sg6
F3.31576351995866e-05
sg7
F0.9999942776048343
ssI256
(dp92
g4
F0.6328125
sg5
F1.0
sg6
F3.130240495953923e-05
sg7
F0.9999964236667429
ssI4096
(dp93
g4
F0.8099902056807052
sg5
F0.9970703125
sg6
F0.0006446093455630006
sg7
F0.9999887268220564
ssI1024
(dp94
g4
F0.7724609375
sg5
F1.0
sg6
F0.00010724784939166815
sg7
F0.9999979324619126
ssI32
(dp95
g4
F1.2580645161290323
sg5
F0.96875
sg6
F2.6661887298505968e-05
sg7
F1.0
ssI8
(dp96
g4
F1.0
sg5
F1.0
sg6
F1.189059254983548e-05
sg7
F1.0
ssI64
(dp97
g4
F1.171875
sg5
F1.0
sg6
F3.0212910005612153e-05
sg7
F1.0
ssI16
(dp98
g4
F1.4375
sg5
F1.0
sg6
F2.269672752568617e-05
sg7
F1.0
ssI512
(dp99
g4
F0.79296875
sg5
F1.0
sg6
F6.130180029471732e-05
sg7
F0.9999987482976849
ssI2048
(dp100
g4
F0.7082111436950147
sg5
F0.9990234375
sg6
F0.00022020155616770719
sg7
F0.9999961624283783
sssS'asketch'
p101
(dp102
I128
(dp103
g4
F65.975
sg5
F0.9375
sg6
F0.0022437171776058685
sg7
F0.9930307660254184
ssI256
(dp104
g4
F35.97071129707113
sg5
F0.93359375
sg6
F0.0017561945833288483
sg7
F0.9979998066172076
ssI4096
(dp105
g4
F2.7613748763600396
sg5
F0.9873046875
sg6
F0.0022150407936269894
sg7
F0.9997578604343175
ssI1024
(dp106
g4
F31.715577889447236
sg5
F0.9716796875
sg6
F0.004292759363548949
sg7
F0.9966164852528625
ssI32
(dp107
g4
F0.41935483870967744
sg5
F0.96875
sg6
F8.249458122172114e-06
sg7
F1.0
ssI8
(dp108
g4
F0.0
sg5
F1.0
sg6
F0.0
sg7
F1.0
ssI64
(dp109
g4
F4.126984126984127
sg5
F0.984375
sg6
F0.00010697063308966911
sg7
F0.9999519969278033
ssI16
(dp110
g4
F0.0
sg5
F1.0
sg6
F0.0
sg7
F1.0
ssI512
(dp111
g4
F51.16041666666667
sg5
F0.9375
sg6
F0.003956602541023147
sg7
F0.9955296572467762
ssI2048
(dp112
g4
F7.580757726819542
sg5
F0.9794921875
sg6
F0.0023271162304753174
sg7
F0.9994997275970455
sss.