(dp0
S'cmsketch'
p1
(dp2
I128
(dp3
S'aae'
p4
F4.5390625
sS'recall'
p5
F1.0
sS'are'
p6
F1.8443133955018528e-05
sS'p'
p7
F1.0
ssI256
(dp8
g4
F3.48828125
sg5
F1.0
sg6
F7.585808113298272e-05
sg7
F0.9999928473334859
ssI4096
(dp9
g4
F3.687913704339299
sg5
F0.995849609375
sg6
F0.0021151089747601655
sg7
F0.999895230051618
ssI1024
(dp10
g4
F3.581622678396872
sg5
F0.9990234375
sg6
F0.0004943787809428089
sg7
F0.9999912628281187
ssI32
(dp11
g4
F8.125
sg5
F1.0
sg6
F1.542335348578127e-05
sg7
F1.0
ssI8
(dp12
g4
F7.625
sg5
F1.0
sg6
F1.4252374393696662e-05
sg7
F1.0
ssI64
(dp13
g4
F8.34375
sg5
F1.0
sg6
F1.6102979319888065e-05
sg7
F1.0
ssI16
(dp14
g4
F8.75
sg5
F1.0
sg6
F1.6456451201903425e-05
sg7
F1.0
ssI512
(dp15
g4
F3.24609375
sg5
F1.0
sg6
F0.00019950802806152903
sg7
F0.9999957978565134
ssI2048
(dp16
g4
F3.9848262359275575
sg5
F0.99755859375
sg6
F0.0011432632872500138
sg7
F0.9999456218275946
sssS'cmmcusketch'
p17
(dp18
I128
(dp19
g4
F51.9375
sg5
F1.0
sg6
F0.0002595965544772885
sg7
F0.9999313312580114
ssI256
(dp20
g4
F34.733333333333334
sg5
F0.99609375
sg6
F0.0007451121451885512
sg7
F0.9999656235525707
ssI4096
(dp21
g4
F14.10408464566929
sg5
F0.9921875
sg6
F0.007857910005898841
sg7
F0.9995353930740902
ssI1024
(dp22
g4
F24.833005893909625
sg5
F0.994140625
sg6
F0.0033524970269277576
sg7
F0.9999000110726604
ssI32
(dp23
g4
F169.28125
sg5
F1.0
sg6
F0.0003213624573807369
sg7
F0.9978005865102639
ssI8
(dp24
g4
F223.71428571428572
sg5
F0.875
sg6
F0.0004164738207614094
sg7
F0.9642857142857143
ssI64
(dp25
g4
F104.65625
sg5
F1.0
sg6
F0.00021597303468622972
sg7
F0.9996794871794872
ssI16
(dp26
g4
F221.66666666666666
sg5
F0.9375
sg6
F0.00041615990507092905
sg7
F0.9928571428571429
ssI512
(dp27
g4
F26.422396856581532
sg5
F0.994140625
sg6
F0.0015247850831384957
sg7
F0.9999606890696504
ssI2048
(dp28
g4
F19.429133858267715
sg5
F0.9921875
sg6
F0.0052516048270686
sg7
F0.9997697299447519
sssS'cusketch'
p29
(dp30
I128
(dp31
g4
F3.0703125
sg5
F1.0
sg6
F6.833282016529466e-06
sg7
F1.0
ssI256
(dp32
g4
F1.6015625
sg5
F1.0
sg6
F6.980574984859078e-06
sg7
F1.0
ssI4096
(dp33
g4
F1.4428152492668622
sg5
F0.9990234375
sg6
F0.0007211058523948729
sg7
F0.9999791619302817
ssI1024
(dp34
g4
F1.0458984375
sg5
F1.0
sg6
F9.467497368596108e-05
sg7
F0.9999986924218582
ssI32
(dp35
g4
F5.6875
sg5
F1.0
sg6
F1.079218431451716e-05
sg7
F1.0
ssI8
(dp36
g4
F5.625
sg5
F1.0
sg6
F1.0518268011507566e-05
sg7
F1.0
ssI64
(dp37
g4
F6.046875
sg5
F1.0
sg6
F1.166365581372275e-05
sg7
F1.0
ssI16
(dp38
g4
F6.25
sg5
F1.0
sg6
F1.1757045928660492e-05
sg7
F1.0
ssI512
(dp39
g4
F1.11328125
sg5
F1.0
sg6
F3.0356200513860678e-05
sg7
F0.9999992847415342
ssI2048
(dp40
g4
F1.2248289345063539
sg5
F0.9990234375
sg6
F0.00028112860152221004
sg7
F0.9999928614722846
sssS'Lcusketch'
p41
(dp42
I128
(dp43
g4
F0.1484375
sg5
F1.0
sg6
F1.0901113453467367e-06
sg7
F1.0
ssI256
(dp44
g4
F0.14453125
sg5
F1.0
sg6
F3.7146437777509945e-06
sg7
F0.9999992847333485
ssI4096
(dp45
g4
F0.8092330239374694
sg5
F0.99951171875
sg6
F0.00040984812469350366
sg7
F0.9999863631074519
ssI1024
(dp46
g4
F0.3876953125
sg5
F1.0
sg6
F4.940319846398265e-05
sg7
F0.9999989829947786
ssI32
(dp47
g4
F0.03125
sg5
F1.0
sg6
F6.0179826951704e-08
sg7
F1.0
ssI8
(dp48
g4
F0.0
sg5
F1.0
sg6
F0.0
sg7
F1.0
ssI64
(dp49
g4
F0.1875
sg5
F1.0
sg6
F3.671575058428007e-07
sg7
F1.0
ssI16
(dp50
g4
F0.0
sg5
F1.0
sg6
F0.0
sg7
F1.0
ssI512
(dp51
g4
F0.2109375
sg5
F1.0
sg6
F1.2797805347362592e-05
sg7
F0.9999997317780753
ssI2048
(dp52
g4
F0.5901319003419638
sg5
F0.99951171875
sg6
F0.00014733957189690412
sg7
F0.999995256580109
sssS'cmmsketch'
p53
(dp54
I128
(dp55
g4
F48.34375
sg5
F1.0
sg6
F0.00023993433995613437
sg7
F0.9999484984435085
ssI256
(dp56
g4
F30.87450980392157
sg5
F0.99609375
sg6
F0.0006177077164602754
sg7
F0.9999685184113015
ssI4096
(dp57
g4
F12.791841779975279
sg5
F0.987548828125
sg6
F0.006963958549146401
sg7
F0.9992757896217719
ssI1024
(dp58
g4
F22.410206084396467
sg5
F0.9951171875
sg6
F0.002989565054835095
sg7
F0.9998481186135562
ssI32
(dp59
g4
F159.9375
sg5
F1.0
sg6
F0.00030366227816246144
sg7
F0.9981671554252199
ssI8
(dp60
g4
F215.57142857142858
sg5
F0.875
sg6
F0.0004013448198819789
sg7
F0.9642857142857143
ssI64
(dp61
g4
F97.703125
sg5
F1.0
sg6
F0.00020056143090660007
sg7
F0.9996794871794872
ssI16
(dp62
g4
F211.0
sg5
F1.0
sg6
F0.00039640612900202144
sg7
F0.9941176470588236
ssI512
(dp63
g4
F23.17843137254902
sg5
F0.99609375
sg6
F0.0012937332386594334
sg7
F0.9999579345692579
ssI2048
(dp64
g4
F17.39604938271605
sg5
F0.98876953125
sg6
F0.004644781827257567
sg7
F0.9995545993144602
sssS'csmsketch'
p65
(dp66
I128
(dp67
g4
F49.5390625
sg5
F1.0
sg6
F0.00023726989868422097
sg7
F0.99995994323384
ssI256
(dp68
g4
F32.266666666666666
sg5
F0.99609375
sg6
F0.0006038047160972865
sg7
F0.9999598338351089
ssI4096
(dp69
g4
F13.64555389965226
sg5
F0.98291015625
sg6
F0.0073793073510599865
sg7
F0.9989912706057064
ssI1024
(dp70
g4
F28.218289085545724
sg5
F0.9931640625
sg6
F0.0038437943422372734
sg7
F0.999415977757027
ssI32
(dp71
g4
F156.375
sg5
F1.0
sg6
F0.0002968546704930218
sg7
F0.9981671554252199
ssI8
(dp72
g4
F216.0
sg5
F0.875
sg6
F0.00040213605142374903
sg7
F0.9642857142857143
ssI64
(dp73
g4
F95.1875
sg5
F1.0
sg6
F0.000182879299657845
sg7
F0.9996336996336996
ssI16
(dp74
g4
F198.5625
sg5
F1.0
sg6
F0.00037298390811705824
sg7
F0.9941176470588236
ssI512
(dp75
g4
F29.874015748031496
sg5
F0.9921875
sg6
F0.0017595703591736385
sg7
F0.9997640202671624
ssI2048
(dp76
g4
F20.95252225519288
sg5
F0.9873046875
sg6
F0.005696202752213761
sg7
F0.9990665782561036
sssS'csketch'
p77
(dp78
I128
(dp79
g4
F5.2265625
sg5
F1.0
sg6
F2.600939875814139e-05
sg7
F1.0
ssI256
(dp80
g4
F4.421875
sg5
F1.0
sg6
F0.00010691083743326571
sg7
F0.9999957084000916
ssI4096
(dp81
g4
F4.56114931237721
sg5
F0.994140625
sg6
F0.0025051760761132438
sg7
F0.9997925721099914
ssI1024
(dp82
g4
F5.498043052837573
sg5
F0.998046875
sg6
F0.0007899918658666154
sg7
F0.9998891800912383
ssI32
(dp83
g4
F11.9375
sg5
F1.0
sg6
F2.265196508803271e-05
sg7
F1.0
ssI8
(dp84
g4
F5.875
sg5
F1.0
sg6
F1.098441903081324e-05
sg7
F1.0
ssI64
(dp85
g4
F9.328125
sg5
F1.0
sg6
F1.7884018557743775e-05
sg7
F1.0
ssI16
(dp86
g4
F19.3125
sg5
F1.0
sg6
F3.654903829109231e-05
sg7
F1.0
ssI512
(dp87
g4
F4.148727984344423
sg5
F0.998046875
sg6
F0.0002492028081421231
sg7
F0.9999925355416139
ssI2048
(dp88
g4
F5.065589818893784
sg5
F0.99755859375
sg6
F0.0014131011684966077
sg7
F0.9998482003082189
sssS'sbfsketch'
p89
(dp90
I128
(dp91
g4
F6.453125
sg5
F1.0
sg6
F2.1877977265606083e-05
sg7
F1.0
ssI256
(dp92
g4
F4.375
sg5
F1.0
sg6
F7.182031693422923e-05
sg7
F0.9999957084000916
ssI4096
(dp93
g4
F3.842892156862745
sg5
F0.99609375
sg6
F0.0021696628362882844
sg7
F0.9998771220730682
ssI1024
(dp94
g4
F4.074509803921568
sg5
F0.99609375
sg6
F0.0005413834487757284
sg7
F0.9999811554198409
ssI32
(dp95
g4
F15.59375
sg5
F1.0
sg6
F2.9550627961169883e-05
sg7
F1.0
ssI8
(dp96
g4
F17.75
sg5
F1.0
sg6
F3.3008135483568944e-05
sg7
F1.0
ssI64
(dp97
g4
F12.25
sg5
F1.0
sg6
F2.349050755088828e-05
sg7
F1.0
ssI16
(dp98
g4
F16.625
sg5
F1.0
sg6
F3.113228703162132e-05
sg7
F1.0
ssI512
(dp99
g4
F3.53125
sg5
F1.0
sg6
F0.00017109557872482445
sg7
F0.9999957084492052
ssI2048
(dp100
g4
F3.989242053789731
sg5
F0.99853515625
sg6
F0.0010805450910475365
sg7
F0.9999596519698792
sssS'asketch'
p101
(dp102
I128
(dp103
g4
F34.77777777777778
sg5
F0.984375
sg6
F0.0008998631317775185
sg7
F0.9998680164979378
ssI256
(dp104
g4
F112.73895582329317
sg5
F0.97265625
sg6
F0.005432689697566618
sg7
F0.9946082394092499
ssI4096
(dp105
g4
F4.596655189375308
sg5
F0.99267578125
sg6
F0.002751115359392268
sg7
F0.9998200363873428
ssI1024
(dp106
g4
F37.09811694747275
sg5
F0.9853515625
sg6
F0.006363497442547663
sg7
F0.9981296397019003
ssI32
(dp107
g4
F7.75
sg5
F1.0
sg6
F1.4704379985947613e-05
sg7
F1.0
ssI8
(dp108
g4
F7.5
sg5
F1.0
sg6
F1.4018545092827565e-05
sg7
F1.0
ssI64
(dp109
g4
F9.640625
sg5
F1.0
sg6
F1.9140878244556533e-05
sg7
F1.0
ssI16
(dp110
g4
F8.6875
sg5
F1.0
sg6
F1.6339536551468874e-05
sg7
F1.0
ssI512
(dp111
g4
F52.60678642714571
sg5
F0.978515625
sg6
F0.004397601987390911
sg7
F0.9986503328005344
ssI2048
(dp112
g4
F10.71964461994077
sg5
F0.9892578125
sg6
F0.0033320387207808532
sg7
F0.999532980208666
sss.